(lp0
(lp1
S'CNDH_NOOP_CC'
p2
aS'CNDH_RESET_COUNTERS_CC'
p3
aS'CNDH_COMMUNICATION_CC'
p4
aS'CNDH_GET_EPS_CC'
p5
aS'CNDH_GET_ADC_CC'
p6
aS'CNDH_GET_COMS_CC'
p7
aS'CNDH_CMD_MID'
p8
aS'CNDH_SEND_HK_MID'
p9
aS'CNDH_WAKE_UP_MID'
p10
aS'CNDH_LOGMSG_MID'
p11
aS'CNDH_HK_TLM_MID'
p12
aa(lp13
S'0'
p14
aS'1'
p15
aS'2'
p16
aS'3'
p17
aS'4'
p18
aS'5'
p19
aS'0x1900'
p20
aS'0x1901'
p21
aS'0x1902'
p22
aS'0x1903'
p23
aS'0x0900'
p24
aag1
a.