(lp0
(lp1
S'COMS_APP_NOOP_CC'
p2
aS'COMS_APP_RESET_COUNTERS_CC'
p3
aS'COMS_GROUND_COMMAND'
p4
aS'COMS_TRANSMIT_BEACON'
p5
aS'COMS_GET_EPS_CC'
p6
aa(lp7
S'0'
p8
aS'1'
p9
aS'2'
p10
aS'3'
p11
aS'4'
p12
aag1
a.